target datalayout = "e-m:e-p270:32:32-p271:32:32-p272:64:64-i64:64-i128:128-f80:128-n8:16:32:64-S128"
target triple = "x86_64-pc-linux-gnu"

%struct.wtap = type { ptr, ptr, i8, i32, i32, ptr, ptr, ptr, i32, ptr, ptr, ptr, ptr, ptr, ptr, ptr, ptr, ptr, ptr, i32, i32, ptr, ptr, ptr, ptr }

@candump_file_type_subtype = internal global i32 -1, align 4

; Function Attrs: null_pointer_is_valid sspstrong uwtable
define hidden i32 @candump_open(ptr noundef %0, ptr noundef %1, ptr noundef %2) #0 {
  %4 = alloca i32, align 4
  %5 = alloca ptr, align 8
  %6 = alloca ptr, align 8
  %7 = alloca ptr, align 8
  store ptr %0, ptr %5, align 8
  store ptr %1, ptr %6, align 8
  store ptr %2, ptr %7, align 8
  %8 = load ptr, ptr %5, align 8
  %9 = getelementptr inbounds nuw %struct.wtap, ptr %8, i32 0, i32 0
  %10 = load ptr, ptr %9, align 8
  %11 = load ptr, ptr %6, align 8
  %12 = load ptr, ptr %7, align 8
  %13 = call zeroext i1 @candump_parse(ptr noundef %10, ptr noundef null, ptr noundef null, ptr noundef %11, ptr noundef %12)
  br i1 %13, label %19, label %14

14:                                               ; preds = %3
  %15 = load ptr, ptr %7, align 8
  %16 = load ptr, ptr %15, align 8
  call void @g_free(ptr noundef %16)
  %17 = load ptr, ptr %6, align 8
  store i32 0, ptr %17, align 4
  %18 = load ptr, ptr %7, align 8
  store ptr null, ptr %18, align 8
  store i32 0, ptr %4, align 4
  br label %49

19:                                               ; preds = %3
  %20 = load ptr, ptr %5, align 8
  %21 = getelementptr inbounds nuw %struct.wtap, ptr %20, i32 0, i32 0
  %22 = load ptr, ptr %21, align 8
  %23 = load ptr, ptr %6, align 8
  %24 = call i64 @file_seek(ptr noundef %22, i64 noundef 0, i32 noundef 0, ptr noundef %23)
  %25 = icmp eq i64 %24, -1
  br i1 %25, label %26, label %35

26:                                               ; preds = %19
  %27 = call ptr @__errno_location() #11
  %28 = load i32, ptr %27, align 4
  %29 = load ptr, ptr %6, align 8
  store i32 %28, ptr %29, align 4
  %30 = call ptr @__errno_location() #11
  %31 = load i32, ptr %30, align 4
  %32 = call ptr @g_strerror(i32 noundef %31) #11
  %33 = call noalias ptr @g_strdup(ptr noundef %32)
  %34 = load ptr, ptr %7, align 8
  store ptr %33, ptr %34, align 8
  store i32 -1, ptr %4, align 4
  br label %49

35:                                               ; preds = %19
  %36 = load ptr, ptr %5, align 8
  %37 = getelementptr inbounds nuw %struct.wtap, ptr %36, i32 0, i32 13
  store ptr null, ptr %37, align 8
  %38 = load i32, ptr @candump_file_type_subtype, align 4
  %39 = load ptr, ptr %5, align 8
  %40 = getelementptr inbounds nuw %struct.wtap, ptr %39, i32 0, i32 3
  store i32 %38, ptr %40, align 4
  %41 = load ptr, ptr %5, align 8
  %42 = getelementptr inbounds nuw %struct.wtap, ptr %41, i32 0, i32 19
  store i32 125, ptr %42, align 8
  %43 = load ptr, ptr %5, align 8
  %44 = getelementptr inbounds nuw %struct.wtap, ptr %43, i32 0, i32 20
  store i32 6, ptr %44, align 4
  %45 = load ptr, ptr %5, align 8
  %46 = getelementptr inbounds nuw %struct.wtap, ptr %45, i32 0, i32 15
  store ptr @candump_read, ptr %46, align 8
  %47 = load ptr, ptr %5, align 8
  %48 = getelementptr inbounds nuw %struct.wtap, ptr %47, i32 0, i32 16
  store ptr @candump_seek_read, ptr %48, align 8
  store i32 1, ptr %4, align 4
  br label %49

49:                                               ; preds = %35, %26, %14
  %50 = load i32, ptr %4, align 4
  ret i32 %50
}