; Function Attrs: null_pointer_is_valid sspstrong uwtable
define hidden range(i32 -1, 2) i32 @candump_open(ptr noundef captures(none) %0, ptr noundef %1, ptr noundef %2) local_unnamed_addr #0 {
  %4 = load ptr, ptr %0, align 8
  %5 = tail call fastcc zeroext i1 @candump_parse(ptr noundef %4, ptr noundef null, ptr noundef null, ptr noundef %1, ptr noundef %2)
  br i1 %5, label %8, label %6

6:                                                ; preds = %3
  %7 = load ptr, ptr %2, align 8
  tail call void @g_free(ptr noundef %7)
  store i32 0, ptr %1, align 4
  store ptr null, ptr %2, align 8
  br label %25

8:                                                ; preds = %3
  %9 = load ptr, ptr %0, align 8
  %10 = tail call i64 @file_seek(ptr noundef %9, i64 noundef 0, i32 noundef 0, ptr noundef %1)
  %11 = icmp eq i64 %10, -1
  br i1 %11, label %12, label %17

12:                                               ; preds = %8
  %13 = tail call ptr @__errno_location() #7
  %14 = load i32, ptr %13, align 4
  store i32 %14, ptr %1, align 4
  %15 = tail call ptr @g_strerror(i32 noundef %14) #7
  %16 = tail call noalias ptr @g_strdup(ptr noundef %15)
  store ptr %16, ptr %2, align 8
  br label %25

17:                                               ; preds = %8
  %18 = getelementptr inbounds nuw i8, ptr %0, i64 96
  store ptr null, ptr %18, align 8
  %19 = load i32, ptr @candump_file_type_subtype, align 4
  %20 = getelementptr inbounds nuw i8, ptr %0, i64 20
  store i32 %19, ptr %20, align 4
  %21 = getelementptr inbounds nuw i8, ptr %0, i64 144
  store i32 125, ptr %21, align 8
  %22 = getelementptr inbounds nuw i8, ptr %0, i64 148
  store i32 6, ptr %22, align 4
  %23 = getelementptr inbounds nuw i8, ptr %0, i64 112
  store ptr @candump_read, ptr %23, align 8
  %24 = getelementptr inbounds nuw i8, ptr %0, i64 120
  store ptr @candump_seek_read, ptr %24, align 8
  br label %25

25:                                               ; preds = %17, %12, %6
  %.0 = phi i32 [ -1, %12 ], [ 1, %17 ], [ 0, %6 ]
  ret i32 %.0
}